; Function Attrs: nounwind sspstrong uwtable
define range(i32 0, 2) i32 @cJSON_AddItemReferenceToObject(ptr noundef %0, ptr noundef readonly %1, ptr noundef readonly %2) local_unnamed_addr #8 {
  %4 = icmp eq ptr %0, null
  %5 = icmp eq ptr %1, null
  %or.cond = or i1 %4, %5
  %6 = icmp eq ptr %2, null
  %or.cond12 = or i1 %or.cond, %6
  br i1 %or.cond12, label %add_item_to_object.exit, label %7

7:                                                ; preds = %3
  %global_hooks.val.i = load ptr, ptr @global_hooks, align 8, !tbaa !18
  %8 = tail call ptr %global_hooks.val.i(i64 noundef 64) #31
  %.not.i.i = icmp eq ptr %8, null
  br i1 %.not.i.i, label %add_item_to_object.exit, label %create_reference.exit

create_reference.exit:                            ; preds = %7
  tail call void @llvm.memset.p0.i64(ptr noundef nonnull align 8 dereferenceable(64) %8, i8 0, i64 64, i1 false)
  tail call void @llvm.memcpy.p0.p0.i64(ptr noundef nonnull align 8 dereferenceable(64) %8, ptr noundef nonnull readonly align 8 dereferenceable(64) %2, i64 56, i1 false)
  %9 = getelementptr inbounds nuw i8, ptr %8, i64 56
  %10 = getelementptr inbounds nuw i8, ptr %8, i64 24
  %11 = load i32, ptr %10, align 8, !tbaa !11
  %12 = or i32 %11, 256
  store i32 %12, ptr %10, align 8, !tbaa !11
  tail call void @llvm.memset.p0.i64(ptr noundef nonnull align 8 dereferenceable(16) %8, i8 0, i64 16, i1 false)
  %13 = icmp eq ptr %0, %8
  br i1 %13, label %add_item_to_object.exit, label %14

14:                                               ; preds = %create_reference.exit
  %15 = tail call i64 @strlen(ptr noundef nonnull readonly dereferenceable(1) %1) #32
  %16 = add i64 %15, 1
  %17 = load ptr, ptr @global_hooks, align 8, !tbaa !18
  %18 = tail call ptr %17(i64 noundef %16) #31
  %19 = icmp eq ptr %18, null
  br i1 %19, label %add_item_to_object.exit, label %20

20:                                               ; preds = %14
  tail call void @llvm.memcpy.p0.p0.i64(ptr nonnull align 1 %18, ptr nonnull readonly align 1 %1, i64 %16, i1 false)
  %21 = load i32, ptr %10, align 8, !tbaa !11
  %22 = and i32 %21, -513
  %23 = and i32 %21, 512
  %.not32.i = icmp eq i32 %23, 0
  br i1 %.not32.i, label %24, label %28

24:                                               ; preds = %20
  %25 = load ptr, ptr %9, align 8, !tbaa !26
  %.not33.i = icmp eq ptr %25, null
  br i1 %.not33.i, label %28, label %26

26:                                               ; preds = %24
  %27 = load ptr, ptr getelementptr inbounds nuw (i8, ptr @global_hooks, i64 8), align 8, !tbaa !22
  tail call void %27(ptr noundef nonnull %25) #31
  br label %28

28:                                               ; preds = %26, %24, %20
  store ptr %18, ptr %9, align 8, !tbaa !26
  store i32 %22, ptr %10, align 8, !tbaa !11
  %29 = getelementptr inbounds nuw i8, ptr %0, i64 16
  %30 = load ptr, ptr %29, align 8, !tbaa !25
  %31 = icmp eq ptr %30, null
  br i1 %31, label %32, label %34

32:                                               ; preds = %28
  store ptr %8, ptr %29, align 8, !tbaa !25
  %33 = getelementptr inbounds nuw i8, ptr %8, i64 8
  store ptr %8, ptr %33, align 8, !tbaa !40
  store ptr null, ptr %8, align 8, !tbaa !24
  br label %add_item_to_object.exit

34:                                               ; preds = %28
  %35 = getelementptr inbounds nuw i8, ptr %30, i64 8
  %36 = load ptr, ptr %35, align 8, !tbaa !40
  %.not.i.i9 = icmp eq ptr %36, null
  br i1 %.not.i.i9, label %add_item_to_object.exit, label %37

37:                                               ; preds = %34
  store ptr %8, ptr %36, align 8, !tbaa !24
  %38 = getelementptr inbounds nuw i8, ptr %8, i64 8
  store ptr %36, ptr %38, align 8, !tbaa !40
  store ptr %8, ptr %35, align 8, !tbaa !40
  br label %add_item_to_object.exit

add_item_to_object.exit:                          ; preds = %7, %37, %34, %32, %14, %create_reference.exit, %3
  %.0 = phi i32 [ 0, %3 ], [ 0, %create_reference.exit ], [ 1, %32 ], [ 1, %34 ], [ 1, %37 ], [ 0, %14 ], [ 0, %7 ]
  ret i32 %.0
}